target datalayout = "e-m:e-p270:32:32-p271:32:32-p272:64:64-i64:64-i128:128-f80:128-n8:16:32:64-S128"
target triple = "x86_64-pc-linux-gnu"

%struct.archive_rb_tree_ops = type { ptr, ptr }
%struct.archive_write = type { %struct.archive, i32, i64, i64, ptr, i64, ptr, ptr, ptr, ptr, ptr, i32, i32, ptr, ptr, ptr, ptr, ptr, ptr, ptr, ptr, ptr, ptr, ptr, ptr, ptr, ptr }
%struct.archive = type { i32, i32, ptr, i32, ptr, i32, i32, ptr, %struct.archive_string, ptr, i32, i32, ptr, ptr, i64, i64, i64, i8, i64 }
%struct.archive_string = type { ptr, i64, i64 }
%struct._7zip = type { i32, i64, ptr, i64, i64, i64, i64, i64, [3 x i64], i64, i64, i64, i32, i32, i32, i32, i32, i32, %struct.la_zstream, %struct.coder, ptr, [61440 x i8], i64, %struct.anon, %struct.anon, %struct.archive_rb_tree }
%struct.la_zstream = type { ptr, i64, i64, ptr, i64, i64, i32, ptr, i32, ptr, ptr, ptr }
%struct.coder = type { i32, i64, ptr }
%struct.anon = type { ptr, ptr }
%struct.archive_rb_tree = type { ptr, ptr }

@archive_write_set_format_7zip.rb_ops = internal constant %struct.archive_rb_tree_ops { ptr @file_cmp_node, ptr @file_cmp_key }, align 8
@.str = private unnamed_addr constant [30 x i8] c"archive_write_set_format_7zip\00", align 1
@.str.1 = private unnamed_addr constant [26 x i8] c"Can't allocate 7-Zip data\00", align 1
@.str.2 = private unnamed_addr constant [5 x i8] c"7zip\00", align 1

; Function Attrs: nounwind uwtable
define internal void @file_init_register_empty(ptr noundef %0) #0 {
  %2 = alloca ptr, align 8
  store ptr %0, ptr %2, align 8
  %3 = load ptr, ptr %2, align 8
  %4 = getelementptr inbounds %struct._7zip, ptr %3, i32 0, i32 24
  %5 = getelementptr inbounds %struct.anon, ptr %4, i32 0, i32 0
  store ptr null, ptr %5, align 8
  %6 = load ptr, ptr %2, align 8
  %7 = getelementptr inbounds %struct._7zip, ptr %6, i32 0, i32 24
  %8 = getelementptr inbounds %struct.anon, ptr %7, i32 0, i32 0
  %9 = load ptr, ptr %2, align 8
  %10 = getelementptr inbounds %struct._7zip, ptr %9, i32 0, i32 24
  %11 = getelementptr inbounds %struct.anon, ptr %10, i32 0, i32 1
  store ptr %8, ptr %11, align 8
  ret void
}

; Function Attrs: nounwind uwtable
define internal void @file_init_register(ptr noundef %0) #0 {
  %2 = alloca ptr, align 8
  store ptr %0, ptr %2, align 8
  %3 = load ptr, ptr %2, align 8
  %4 = getelementptr inbounds %struct._7zip, ptr %3, i32 0, i32 23
  %5 = getelementptr inbounds %struct.anon, ptr %4, i32 0, i32 0
  store ptr null, ptr %5, align 8
  %6 = load ptr, ptr %2, align 8
  %7 = getelementptr inbounds %struct._7zip, ptr %6, i32 0, i32 23
  %8 = getelementptr inbounds %struct.anon, ptr %7, i32 0, i32 0
  %9 = load ptr, ptr %2, align 8
  %10 = getelementptr inbounds %struct._7zip, ptr %9, i32 0, i32 23
  %11 = getelementptr inbounds %struct.anon, ptr %10, i32 0, i32 1
  store ptr %8, ptr %11, align 8
  ret void
}

; Function Attrs: nounwind uwtable
define dso_local i32 @archive_write_set_format_7zip(ptr noundef %0) #0 {
  %2 = alloca i32, align 4
  %3 = alloca ptr, align 8
  %4 = alloca ptr, align 8
  %5 = alloca ptr, align 8
  %6 = alloca i32, align 4
  store ptr %0, ptr %3, align 8
  %7 = load ptr, ptr %3, align 8
  store ptr %7, ptr %4, align 8
  br label %8

8:                                                ; preds = %1
  %9 = load ptr, ptr %3, align 8
  %10 = call i32 @__archive_check_magic(ptr noundef %9, i32 noundef -1329217314, i32 noundef 1, ptr noundef @.str)
  store i32 %10, ptr %6, align 4
  %11 = load i32, ptr %6, align 4
  %12 = icmp eq i32 %11, -30
  br i1 %12, label %13, label %14

13:                                               ; preds = %8
  store i32 -30, ptr %2, align 4
  br label %67

14:                                               ; preds = %8
  br label %15

15:                                               ; preds = %14
  %16 = load ptr, ptr %4, align 8
  %17 = getelementptr inbounds %struct.archive_write, ptr %16, i32 0, i32 23
  %18 = load ptr, ptr %17, align 8
  %19 = icmp ne ptr %18, null
  br i1 %19, label %20, label %26

20:                                               ; preds = %15
  %21 = load ptr, ptr %4, align 8
  %22 = getelementptr inbounds %struct.archive_write, ptr %21, i32 0, i32 23
  %23 = load ptr, ptr %22, align 8
  %24 = load ptr, ptr %4, align 8
  %25 = call i32 %23(ptr noundef %24)
  br label %26

26:                                               ; preds = %20, %15
  %27 = call noalias ptr @calloc(i64 noundef 1, i64 noundef 61760) #8
  store ptr %27, ptr %5, align 8
  %28 = load ptr, ptr %5, align 8
  %29 = icmp eq ptr %28, null
  br i1 %29, label %30, label %33

30:                                               ; preds = %26
  %31 = load ptr, ptr %4, align 8
  %32 = getelementptr inbounds %struct.archive_write, ptr %31, i32 0, i32 0
  call void (ptr, i32, ptr, ...) @archive_set_error(ptr noundef %32, i32 noundef 12, ptr noundef @.str.1)
  store i32 -30, ptr %2, align 4
  br label %67

33:                                               ; preds = %26
  %34 = load ptr, ptr %5, align 8
  %35 = getelementptr inbounds %struct._7zip, ptr %34, i32 0, i32 0
  store i32 -1, ptr %35, align 8
  %36 = load ptr, ptr %5, align 8
  %37 = getelementptr inbounds %struct._7zip, ptr %36, i32 0, i32 25
  call void @__archive_rb_tree_init(ptr noundef %37, ptr noundef @archive_write_set_format_7zip.rb_ops)
  %38 = load ptr, ptr %5, align 8
  call void @file_init_register(ptr noundef %38)
  %39 = load ptr, ptr %5, align 8
  call void @file_init_register_empty(ptr noundef %39)
  %40 = load ptr, ptr %5, align 8
  %41 = getelementptr inbounds %struct._7zip, ptr %40, i32 0, i32 16
  store i32 196865, ptr %41, align 8
  %42 = load ptr, ptr %5, align 8
  %43 = getelementptr inbounds %struct._7zip, ptr %42, i32 0, i32 17
  store i32 6, ptr %43, align 4
  %44 = load ptr, ptr %5, align 8
  %45 = load ptr, ptr %4, align 8
  %46 = getelementptr inbounds %struct.archive_write, ptr %45, i32 0, i32 15
  store ptr %44, ptr %46, align 8
  %47 = load ptr, ptr %4, align 8
  %48 = getelementptr inbounds %struct.archive_write, ptr %47, i32 0, i32 16
  store ptr @.str.2, ptr %48, align 8
  %49 = load ptr, ptr %4, align 8
  %50 = getelementptr inbounds %struct.archive_write, ptr %49, i32 0, i32 18
  store ptr @_7z_options, ptr %50, align 8
  %51 = load ptr, ptr %4, align 8
  %52 = getelementptr inbounds %struct.archive_write, ptr %51, i32 0, i32 20
  store ptr @_7z_write_header, ptr %52, align 8
  %53 = load ptr, ptr %4, align 8
  %54 = getelementptr inbounds %struct.archive_write, ptr %53, i32 0, i32 21
  store ptr @_7z_write_data, ptr %54, align 8
  %55 = load ptr, ptr %4, align 8
  %56 = getelementptr inbounds %struct.archive_write, ptr %55, i32 0, i32 19
  store ptr @_7z_finish_entry, ptr %56, align 8
  %57 = load ptr, ptr %4, align 8
  %58 = getelementptr inbounds %struct.archive_write, ptr %57, i32 0, i32 22
  store ptr @_7z_close, ptr %58, align 8
  %59 = load ptr, ptr %4, align 8
  %60 = getelementptr inbounds %struct.archive_write, ptr %59, i32 0, i32 23
  store ptr @_7z_free, ptr %60, align 8
  %61 = load ptr, ptr %4, align 8
  %62 = getelementptr inbounds %struct.archive_write, ptr %61, i32 0, i32 0
  %63 = getelementptr inbounds %struct.archive, ptr %62, i32 0, i32 3
  store i32 917504, ptr %63, align 8
  %64 = load ptr, ptr %4, align 8
  %65 = getelementptr inbounds %struct.archive_write, ptr %64, i32 0, i32 0
  %66 = getelementptr inbounds %struct.archive, ptr %65, i32 0, i32 4
  store ptr @.str.2, ptr %66, align 8
  store i32 0, ptr %2, align 4
  br label %67

67:                                               ; preds = %33, %30, %13
  %68 = load i32, ptr %2, align 4
  ret i32 %68
}