; Function Attrs: nounwind uwtable
define dso_local range(i32 -30, 1) i32 @archive_write_set_format_7zip(ptr noundef %0) local_unnamed_addr #0 {
  %2 = tail call i32 @__archive_check_magic(ptr noundef %0, i32 noundef -1329217314, i32 noundef 1, ptr noundef nonnull @.str) #18
  %3 = icmp eq i32 %2, -30
  br i1 %3, label %30, label %4

4:                                                ; preds = %1
  %5 = getelementptr inbounds nuw i8, ptr %0, i64 312
  %6 = load ptr, ptr %5, align 8
  %.not = icmp eq ptr %6, null
  br i1 %.not, label %9, label %7

7:                                                ; preds = %4
  %8 = tail call i32 %6(ptr noundef nonnull %0) #18
  br label %9

9:                                                ; preds = %7, %4
  %10 = tail call noalias dereferenceable_or_null(61760) ptr @calloc(i64 noundef 1, i64 noundef 61760) #19
  %11 = icmp eq ptr %10, null
  br i1 %11, label %12, label %13

12:                                               ; preds = %9
  tail call void (ptr, i32, ptr, ...) @archive_set_error(ptr noundef nonnull %0, i32 noundef 12, ptr noundef nonnull @.str.1) #18
  br label %30

13:                                               ; preds = %9
  store i32 -1, ptr %10, align 8
  %14 = getelementptr inbounds nuw i8, ptr %10, i64 61744
  tail call void @__archive_rb_tree_init(ptr noundef nonnull %14, ptr noundef nonnull @archive_write_set_format_7zip.rb_ops) #18
  %15 = getelementptr inbounds nuw i8, ptr %10, i64 61712
  store ptr null, ptr %15, align 8
  %16 = getelementptr inbounds nuw i8, ptr %10, i64 61720
  store ptr %15, ptr %16, align 8
  %17 = getelementptr inbounds nuw i8, ptr %10, i64 61728
  store ptr null, ptr %17, align 8
  %18 = getelementptr inbounds nuw i8, ptr %10, i64 61736
  store ptr %17, ptr %18, align 8
  %19 = getelementptr inbounds nuw i8, ptr %10, i64 128
  store i32 196865, ptr %19, align 8
  %20 = getelementptr inbounds nuw i8, ptr %10, i64 132
  store i32 6, ptr %20, align 4
  %21 = getelementptr inbounds nuw i8, ptr %0, i64 248
  store ptr %10, ptr %21, align 8
  %22 = getelementptr inbounds nuw i8, ptr %0, i64 256
  store ptr @.str.2, ptr %22, align 8
  %23 = getelementptr inbounds nuw i8, ptr %0, i64 272
  store ptr @_7z_options, ptr %23, align 8
  %24 = getelementptr inbounds nuw i8, ptr %0, i64 288
  store ptr @_7z_write_header, ptr %24, align 8
  %25 = getelementptr inbounds nuw i8, ptr %0, i64 296
  store ptr @_7z_write_data, ptr %25, align 8
  %26 = getelementptr inbounds nuw i8, ptr %0, i64 280
  store ptr @_7z_finish_entry, ptr %26, align 8
  %27 = getelementptr inbounds nuw i8, ptr %0, i64 304
  store ptr @_7z_close, ptr %27, align 8
  store ptr @_7z_free, ptr %5, align 8
  %28 = getelementptr inbounds nuw i8, ptr %0, i64 16
  store i32 917504, ptr %28, align 8
  %29 = getelementptr inbounds nuw i8, ptr %0, i64 24
  store ptr @.str.2, ptr %29, align 8
  br label %30

30:                                               ; preds = %1, %13, %12
  %.0 = phi i32 [ -30, %12 ], [ 0, %13 ], [ -30, %1 ]
  ret i32 %.0
}